; Function Attrs: nounwind uwtable
define hidden i32 @avifImageSetMetadataExif(ptr noundef %0, ptr noundef %1, i64 noundef %2) local_unnamed_addr #1 {
  %4 = alloca i64, align 8
  %5 = getelementptr inbounds nuw i8, ptr %0, i64 168
  %6 = tail call i32 @avifRWDataSet(ptr noundef nonnull %5, ptr noundef %1, i64 noundef %2) #6
  %.not = icmp eq i32 %6, 0
  br i1 %.not, label %7, label %39

7:                                                ; preds = %3
  call void @llvm.lifetime.start.p0(i64 8, ptr nonnull %4)
  %8 = getelementptr inbounds nuw i8, ptr %0, i64 116
  %9 = load i32, ptr %8, align 4
  %10 = and i32 %9, -13
  %11 = load ptr, ptr %5, align 8
  %12 = getelementptr inbounds i8, ptr %0, i64 176
  %13 = load i64, ptr %12, align 8
  %14 = call i32 @avifGetExifOrientationOffset(ptr noundef %11, i64 noundef %13, ptr noundef nonnull %4)
  %.not.i = icmp eq i32 %14, 0
  br i1 %.not.i, label %15, label %avifImageExtractExifOrientationToIrotImir.exit

15:                                               ; preds = %7
  %16 = load i64, ptr %4, align 8
  %17 = load i64, ptr %12, align 8
  %18 = icmp ult i64 %16, %17
  br i1 %18, label %19, label %.sink.split.i

19:                                               ; preds = %15
  %20 = load ptr, ptr %5, align 8
  %21 = getelementptr inbounds i8, ptr %20, i64 %16
  %22 = load i8, ptr %21, align 1
  switch i8 %22, label %.sink.split.i [
    i8 8, label %35
    i8 2, label %23
    i8 3, label %25
    i8 4, label %27
    i8 5, label %29
    i8 6, label %31
    i8 7, label %33
  ]

23:                                               ; preds = %19
  %24 = or disjoint i32 %10, 8
  br label %.sink.split.i

25:                                               ; preds = %19
  %26 = or disjoint i32 %10, 4
  br label %.sink.split.i

27:                                               ; preds = %19
  %28 = or disjoint i32 %10, 8
  br label %.sink.split.i

29:                                               ; preds = %19
  %30 = or i32 %9, 12
  br label %.sink.split.i

31:                                               ; preds = %19
  %32 = or disjoint i32 %10, 4
  br label %.sink.split.i

33:                                               ; preds = %19
  %34 = or i32 %9, 12
  br label %.sink.split.i

35:                                               ; preds = %19
  %36 = or disjoint i32 %10, 4
  br label %.sink.split.i

.sink.split.i:                                    ; preds = %35, %33, %31, %29, %27, %25, %23, %19, %15
  %.sink49.i = phi i32 [ %36, %35 ], [ %34, %33 ], [ %32, %31 ], [ %30, %29 ], [ %28, %27 ], [ %26, %25 ], [ %24, %23 ], [ %10, %19 ], [ %10, %15 ]
  %.sink47.i = phi i8 [ 1, %35 ], [ 3, %33 ], [ 3, %31 ], [ 1, %29 ], [ 0, %27 ], [ 2, %25 ], [ 0, %23 ], [ 0, %19 ], [ 0, %15 ]
  %.sink.i = phi i8 [ 0, %35 ], [ 0, %33 ], [ 0, %31 ], [ 0, %29 ], [ 0, %27 ], [ 0, %25 ], [ 1, %23 ], [ 0, %19 ], [ 0, %15 ]
  store i32 %.sink49.i, ptr %8, align 4
  %37 = getelementptr inbounds nuw i8, ptr %0, i64 160
  store i8 %.sink47.i, ptr %37, align 8
  %38 = getelementptr inbounds nuw i8, ptr %0, i64 161
  store i8 %.sink.i, ptr %38, align 1
  br label %avifImageExtractExifOrientationToIrotImir.exit

avifImageExtractExifOrientationToIrotImir.exit:   ; preds = %7, %.sink.split.i
  call void @llvm.lifetime.end.p0(i64 8, ptr nonnull %4)
  br label %39

39:                                               ; preds = %3, %avifImageExtractExifOrientationToIrotImir.exit
  ret i32 %6
}